target datalayout = "e-m:e-p270:32:32-p271:32:32-p272:64:64-i64:64-i128:128-f80:128-n8:16:32:64-S128"
target triple = "x86_64-pc-linux-gnu"

%struct.AVCodecContext = type { ptr, i32, i32, ptr, i32, i32, ptr, ptr, ptr, i64, i32, i32, ptr, i32, %struct.AVRational, %struct.AVRational, %struct.AVRational, i32, i32, i32, i32, i32, %struct.AVRational, i32, i32, i32, i32, i32, i32, i32, i32, i32, i32, i32, ptr, ptr, i32, float, float, float, float, float, float, float, float, float, i32, i32, i32, i32, i32, i32, i32, i32, i32, i32, i32, i32, ptr, ptr, ptr, i32, i32, i32, i32, i32, i32, i32, i32, i32, i32, %struct.AVChannelLayout, i32, i32, i32, i32, i32, i32, i32, i32, ptr, i32, i32, i32, float, float, i32, i32, i32, i32, i32, ptr, i64, i64, float, float, i32, i32, ptr, ptr, i32, i32, i32, i32, i32, ptr, ptr, ptr, ptr, i32, i32, [8 x i64], i32, i32, i32, i32, i32, i32, i32, ptr, ptr, i32, i32, i32, i32, i32, i32, i32, i32, i32, i32, ptr, ptr, i32, i32, ptr, ptr, ptr, ptr, i32, i32, i64, i32, i32, i64, ptr, i64, ptr, i32, ptr, i32 }
%struct.AVRational = type { i32, i32 }
%struct.AVChannelLayout = type { i32, i32, %union.anon.0, ptr }
%union.anon.0 = type { i64 }
%struct.GetByteContext = type { ptr, ptr, ptr }

@.str.20 = private unnamed_addr constant [18 x i8] c"missing RIFF tag\0A\00", align 1
@.str.21 = private unnamed_addr constant [18 x i8] c"missing WAVE tag\0A\00", align 1
@.str.22 = private unnamed_addr constant [20 x i8] c"no fmt chunk found\0A\00", align 1
@.str.23 = private unnamed_addr constant [25 x i8] c"fmt chunk was too short\0A\00", align 1
@.str.24 = private unnamed_addr constant [25 x i8] c"unsupported wave format\0A\00", align 1
@.str.25 = private unnamed_addr constant [43 x i8] c"unsupported number of bits per sample: %d\0A\00", align 1
@.str.26 = private unnamed_addr constant [26 x i8] c"%d header bytes unparsed\0A\00", align 1
@.str.27 = private unnamed_addr constant [30 x i8] c"Assertion %s failed at %s:%d\0A\00", align 1
@.str.28 = private unnamed_addr constant [14 x i8] c"buf_size >= 0\00", align 1
@.str.29 = private unnamed_addr constant [24 x i8] c"libavcodec/bytestream.h\00", align 1

; Function Attrs: alwaysinline nounwind uwtable
define internal i32 @bytestream_get_le16(ptr noundef %0) #8 {
  %2 = alloca ptr, align 8
  store ptr %0, ptr %2, align 8, !tbaa !123
  %3 = load ptr, ptr %2, align 8, !tbaa !123
  %4 = load ptr, ptr %3, align 8, !tbaa !42
  %5 = getelementptr inbounds i8, ptr %4, i64 2
  store ptr %5, ptr %3, align 8, !tbaa !42
  %6 = load ptr, ptr %2, align 8, !tbaa !123
  %7 = load ptr, ptr %6, align 8, !tbaa !42
  %8 = getelementptr inbounds i8, ptr %7, i64 -2
  %9 = load i16, ptr %8, align 1, !tbaa !57
  %10 = zext i16 %9 to i32
  ret i32 %10
}

; Function Attrs: alwaysinline nounwind uwtable
define internal i32 @bytestream_get_le32(ptr noundef %0) #8 {
  %2 = alloca ptr, align 8
  store ptr %0, ptr %2, align 8, !tbaa !123
  %3 = load ptr, ptr %2, align 8, !tbaa !123
  %4 = load ptr, ptr %3, align 8, !tbaa !42
  %5 = getelementptr inbounds i8, ptr %4, i64 4
  store ptr %5, ptr %3, align 8, !tbaa !42
  %6 = load ptr, ptr %2, align 8, !tbaa !123
  %7 = load ptr, ptr %6, align 8, !tbaa !42
  %8 = getelementptr inbounds i8, ptr %7, i64 -4
  %9 = load i32, ptr %8, align 1, !tbaa !57
  ret i32 %9
}

; Function Attrs: alwaysinline nounwind uwtable
define internal i32 @bytestream2_get_le16u(ptr noundef %0) #8 {
  %2 = alloca ptr, align 8
  store ptr %0, ptr %2, align 8, !tbaa !117
  %3 = load ptr, ptr %2, align 8, !tbaa !117
  %4 = getelementptr inbounds nuw %struct.GetByteContext, ptr %3, i32 0, i32 0
  %5 = call i32 @bytestream_get_le16(ptr noundef %4)
  ret i32 %5
}

; Function Attrs: alwaysinline nounwind uwtable
define internal i32 @bytestream2_get_le32u(ptr noundef %0) #8 {
  %2 = alloca ptr, align 8
  store ptr %0, ptr %2, align 8, !tbaa !117
  %3 = load ptr, ptr %2, align 8, !tbaa !117
  %4 = getelementptr inbounds nuw %struct.GetByteContext, ptr %3, i32 0, i32 0
  %5 = call i32 @bytestream_get_le32(ptr noundef %4)
  ret i32 %5
}

; Function Attrs: alwaysinline nounwind uwtable
define internal i32 @bytestream2_get_le16(ptr noundef %0) #8 {
  %2 = alloca i32, align 4
  %3 = alloca ptr, align 8
  store ptr %0, ptr %3, align 8, !tbaa !117
  %4 = load ptr, ptr %3, align 8, !tbaa !117
  %5 = getelementptr inbounds nuw %struct.GetByteContext, ptr %4, i32 0, i32 1
  %6 = load ptr, ptr %5, align 8, !tbaa !122
  %7 = load ptr, ptr %3, align 8, !tbaa !117
  %8 = getelementptr inbounds nuw %struct.GetByteContext, ptr %7, i32 0, i32 0
  %9 = load ptr, ptr %8, align 8, !tbaa !119
  %10 = ptrtoint ptr %6 to i64
  %11 = ptrtoint ptr %9 to i64
  %12 = sub i64 %10, %11
  %13 = icmp slt i64 %12, 2
  br i1 %13, label %14, label %20

14:                                               ; preds = %1
  %15 = load ptr, ptr %3, align 8, !tbaa !117
  %16 = getelementptr inbounds nuw %struct.GetByteContext, ptr %15, i32 0, i32 1
  %17 = load ptr, ptr %16, align 8, !tbaa !122
  %18 = load ptr, ptr %3, align 8, !tbaa !117
  %19 = getelementptr inbounds nuw %struct.GetByteContext, ptr %18, i32 0, i32 0
  store ptr %17, ptr %19, align 8, !tbaa !119
  store i32 0, ptr %2, align 4
  br label %23

20:                                               ; preds = %1
  %21 = load ptr, ptr %3, align 8, !tbaa !117
  %22 = call i32 @bytestream2_get_le16u(ptr noundef %21)
  store i32 %22, ptr %2, align 4
  br label %23

23:                                               ; preds = %20, %14
  %24 = load i32, ptr %2, align 4
  ret i32 %24
}

; Function Attrs: alwaysinline nounwind uwtable
define internal i32 @bytestream2_get_bytes_left(ptr noundef %0) #8 {
  %2 = alloca ptr, align 8
  store ptr %0, ptr %2, align 8, !tbaa !117
  %3 = load ptr, ptr %2, align 8, !tbaa !117
  %4 = getelementptr inbounds nuw %struct.GetByteContext, ptr %3, i32 0, i32 1
  %5 = load ptr, ptr %4, align 8, !tbaa !122
  %6 = load ptr, ptr %2, align 8, !tbaa !117
  %7 = getelementptr inbounds nuw %struct.GetByteContext, ptr %6, i32 0, i32 0
  %8 = load ptr, ptr %7, align 8, !tbaa !119
  %9 = ptrtoint ptr %5 to i64
  %10 = ptrtoint ptr %8 to i64
  %11 = sub i64 %9, %10
  %12 = trunc i64 %11 to i32
  ret i32 %12
}

; Function Attrs: alwaysinline nounwind uwtable
define internal void @bytestream2_skip(ptr noundef %0, i32 noundef %1) #8 {
  %3 = alloca ptr, align 8
  %4 = alloca i32, align 4
  store ptr %0, ptr %3, align 8, !tbaa !117
  store i32 %1, ptr %4, align 4, !tbaa !44
  %5 = load ptr, ptr %3, align 8, !tbaa !117
  %6 = getelementptr inbounds nuw %struct.GetByteContext, ptr %5, i32 0, i32 1
  %7 = load ptr, ptr %6, align 8, !tbaa !122
  %8 = load ptr, ptr %3, align 8, !tbaa !117
  %9 = getelementptr inbounds nuw %struct.GetByteContext, ptr %8, i32 0, i32 0
  %10 = load ptr, ptr %9, align 8, !tbaa !119
  %11 = ptrtoint ptr %7 to i64
  %12 = ptrtoint ptr %10 to i64
  %13 = sub i64 %11, %12
  %14 = load i32, ptr %4, align 4, !tbaa !44
  %15 = zext i32 %14 to i64
  %16 = icmp sgt i64 %13, %15
  br i1 %16, label %17, label %20

17:                                               ; preds = %2
  %18 = load i32, ptr %4, align 4, !tbaa !44
  %19 = zext i32 %18 to i64
  br label %30

20:                                               ; preds = %2
  %21 = load ptr, ptr %3, align 8, !tbaa !117
  %22 = getelementptr inbounds nuw %struct.GetByteContext, ptr %21, i32 0, i32 1
  %23 = load ptr, ptr %22, align 8, !tbaa !122
  %24 = load ptr, ptr %3, align 8, !tbaa !117
  %25 = getelementptr inbounds nuw %struct.GetByteContext, ptr %24, i32 0, i32 0
  %26 = load ptr, ptr %25, align 8, !tbaa !119
  %27 = ptrtoint ptr %23 to i64
  %28 = ptrtoint ptr %26 to i64
  %29 = sub i64 %27, %28
  br label %30

30:                                               ; preds = %20, %17
  %31 = phi i64 [ %19, %17 ], [ %29, %20 ]
  %32 = load ptr, ptr %3, align 8, !tbaa !117
  %33 = getelementptr inbounds nuw %struct.GetByteContext, ptr %32, i32 0, i32 0
  %34 = load ptr, ptr %33, align 8, !tbaa !119
  %35 = getelementptr inbounds i8, ptr %34, i64 %31
  store ptr %35, ptr %33, align 8, !tbaa !119
  ret void
}

; Function Attrs: alwaysinline nounwind uwtable
define internal i32 @bytestream2_get_le32(ptr noundef %0) #8 {
  %2 = alloca i32, align 4
  %3 = alloca ptr, align 8
  store ptr %0, ptr %3, align 8, !tbaa !117
  %4 = load ptr, ptr %3, align 8, !tbaa !117
  %5 = getelementptr inbounds nuw %struct.GetByteContext, ptr %4, i32 0, i32 1
  %6 = load ptr, ptr %5, align 8, !tbaa !122
  %7 = load ptr, ptr %3, align 8, !tbaa !117
  %8 = getelementptr inbounds nuw %struct.GetByteContext, ptr %7, i32 0, i32 0
  %9 = load ptr, ptr %8, align 8, !tbaa !119
  %10 = ptrtoint ptr %6 to i64
  %11 = ptrtoint ptr %9 to i64
  %12 = sub i64 %10, %11
  %13 = icmp slt i64 %12, 4
  br i1 %13, label %14, label %20

14:                                               ; preds = %1
  %15 = load ptr, ptr %3, align 8, !tbaa !117
  %16 = getelementptr inbounds nuw %struct.GetByteContext, ptr %15, i32 0, i32 1
  %17 = load ptr, ptr %16, align 8, !tbaa !122
  %18 = load ptr, ptr %3, align 8, !tbaa !117
  %19 = getelementptr inbounds nuw %struct.GetByteContext, ptr %18, i32 0, i32 0
  store ptr %17, ptr %19, align 8, !tbaa !119
  store i32 0, ptr %2, align 4
  br label %23

20:                                               ; preds = %1
  %21 = load ptr, ptr %3, align 8, !tbaa !117
  %22 = call i32 @bytestream2_get_le32u(ptr noundef %21)
  store i32 %22, ptr %2, align 4
  br label %23

23:                                               ; preds = %20, %14
  %24 = load i32, ptr %2, align 4
  ret i32 %24
}

; Function Attrs: alwaysinline nounwind uwtable
define internal void @bytestream2_init(ptr noundef %0, ptr noundef %1, i32 noundef %2) #8 {
  %4 = alloca ptr, align 8
  %5 = alloca ptr, align 8
  %6 = alloca i32, align 4
  store ptr %0, ptr %4, align 8, !tbaa !117
  store ptr %1, ptr %5, align 8, !tbaa !42
  store i32 %2, ptr %6, align 4, !tbaa !44
  br label %7

7:                                                ; preds = %3
  %8 = load i32, ptr %6, align 4, !tbaa !44
  %9 = icmp sge i32 %8, 0
  br i1 %9, label %11, label %10

10:                                               ; preds = %7
  call void (ptr, i32, ptr, ...) @av_log(ptr noundef null, i32 noundef 0, ptr noundef @.str.27, ptr noundef @.str.28, ptr noundef @.str.29, i32 noundef 141)
  call void @abort() #13
  unreachable

11:                                               ; preds = %7
  br label %12

12:                                               ; preds = %11
  %13 = load ptr, ptr %5, align 8, !tbaa !42
  %14 = load ptr, ptr %4, align 8, !tbaa !117
  %15 = getelementptr inbounds nuw %struct.GetByteContext, ptr %14, i32 0, i32 0
  store ptr %13, ptr %15, align 8, !tbaa !119
  %16 = load ptr, ptr %5, align 8, !tbaa !42
  %17 = load ptr, ptr %4, align 8, !tbaa !117
  %18 = getelementptr inbounds nuw %struct.GetByteContext, ptr %17, i32 0, i32 2
  store ptr %16, ptr %18, align 8, !tbaa !121
  %19 = load ptr, ptr %5, align 8, !tbaa !42
  %20 = load i32, ptr %6, align 4, !tbaa !44
  %21 = sext i32 %20 to i64
  %22 = getelementptr inbounds i8, ptr %19, i64 %21
  %23 = load ptr, ptr %4, align 8, !tbaa !117
  %24 = getelementptr inbounds nuw %struct.GetByteContext, ptr %23, i32 0, i32 1
  store ptr %22, ptr %24, align 8, !tbaa !122
  ret void
}

; Function Attrs: nounwind uwtable
define internal i32 @decode_wave_header(ptr noundef %0, ptr noundef %1, i32 noundef %2) #1 {
  %4 = alloca i32, align 4
  %5 = alloca ptr, align 8
  %6 = alloca ptr, align 8
  %7 = alloca i32, align 4
  %8 = alloca i32, align 4
  %9 = alloca i32, align 4
  %10 = alloca i16, align 2
  %11 = alloca %struct.GetByteContext, align 8
  %12 = alloca i32, align 4
  store ptr %0, ptr %5, align 8, !tbaa !4
  store ptr %1, ptr %6, align 8, !tbaa !42
  store i32 %2, ptr %7, align 4, !tbaa !44
  call void @llvm.lifetime.start.p0(i64 4, ptr %8) #11
  call void @llvm.lifetime.start.p0(i64 4, ptr %9) #11
  call void @llvm.lifetime.start.p0(i64 2, ptr %10) #11
  call void @llvm.lifetime.start.p0(i64 24, ptr %11) #11
  %13 = load ptr, ptr %6, align 8, !tbaa !42
  %14 = load i32, ptr %7, align 4, !tbaa !44
  call void @bytestream2_init(ptr noundef %11, ptr noundef %13, i32 noundef %14)
  %15 = call i32 @bytestream2_get_le32(ptr noundef %11)
  %16 = icmp ne i32 %15, 1179011410
  br i1 %16, label %17, label %19

17:                                               ; preds = %3
  %18 = load ptr, ptr %5, align 8, !tbaa !4
  call void (ptr, i32, ptr, ...) @av_log(ptr noundef %18, i32 noundef 16, ptr noundef @.str.20)
  store i32 -1094995529, ptr %4, align 4
  store i32 1, ptr %12, align 4
  br label %77

19:                                               ; preds = %3
  call void @bytestream2_skip(ptr noundef %11, i32 noundef 4)
  %20 = call i32 @bytestream2_get_le32(ptr noundef %11)
  %21 = icmp ne i32 %20, 1163280727
  br i1 %21, label %22, label %24

22:                                               ; preds = %19
  %23 = load ptr, ptr %5, align 8, !tbaa !4
  call void (ptr, i32, ptr, ...) @av_log(ptr noundef %23, i32 noundef 16, ptr noundef @.str.21)
  store i32 -1094995529, ptr %4, align 4
  store i32 1, ptr %12, align 4
  br label %77

24:                                               ; preds = %19
  br label %25

25:                                               ; preds = %38, %24
  %26 = call i32 @bytestream2_get_le32(ptr noundef %11)
  %27 = icmp ne i32 %26, 544501094
  br i1 %27, label %28, label %39

28:                                               ; preds = %25
  %29 = call i32 @bytestream2_get_le32(ptr noundef %11)
  store i32 %29, ptr %8, align 4, !tbaa !44
  %30 = load i32, ptr %8, align 4, !tbaa !44
  call void @bytestream2_skip(ptr noundef %11, i32 noundef %30)
  %31 = load i32, ptr %8, align 4, !tbaa !44
  %32 = icmp slt i32 %31, 0
  br i1 %32, label %36, label %33

33:                                               ; preds = %28
  %34 = call i32 @bytestream2_get_bytes_left(ptr noundef %11)
  %35 = icmp slt i32 %34, 16
  br i1 %35, label %36, label %38

36:                                               ; preds = %33, %28
  %37 = load ptr, ptr %5, align 8, !tbaa !4
  call void (ptr, i32, ptr, ...) @av_log(ptr noundef %37, i32 noundef 16, ptr noundef @.str.22)
  store i32 -1094995529, ptr %4, align 4
  store i32 1, ptr %12, align 4
  br label %77

38:                                               ; preds = %33
  br label %25, !llvm.loop !108

39:                                               ; preds = %25
  %40 = call i32 @bytestream2_get_le32(ptr noundef %11)
  store i32 %40, ptr %8, align 4, !tbaa !44
  %41 = load i32, ptr %8, align 4, !tbaa !44
  %42 = icmp slt i32 %41, 16
  br i1 %42, label %43, label %45

43:                                               ; preds = %39
  %44 = load ptr, ptr %5, align 8, !tbaa !4
  call void (ptr, i32, ptr, ...) @av_log(ptr noundef %44, i32 noundef 16, ptr noundef @.str.23)
  store i32 -1094995529, ptr %4, align 4
  store i32 1, ptr %12, align 4
  br label %77

45:                                               ; preds = %39
  %46 = call i32 @bytestream2_get_le16(ptr noundef %11)
  %47 = trunc i32 %46 to i16
  store i16 %47, ptr %10, align 2, !tbaa !78
  %48 = load i16, ptr %10, align 2, !tbaa !78
  %49 = zext i16 %48 to i32
  switch i32 %49, label %50 [
    i32 1, label %52
  ]

50:                                               ; preds = %45
  %51 = load ptr, ptr %5, align 8, !tbaa !4
  call void (ptr, i32, ptr, ...) @av_log(ptr noundef %51, i32 noundef 16, ptr noundef @.str.24)
  store i32 -38, ptr %4, align 4
  store i32 1, ptr %12, align 4
  br label %77

52:                                               ; preds = %45
  call void @bytestream2_skip(ptr noundef %11, i32 noundef 2)
  %53 = call i32 @bytestream2_get_le32(ptr noundef %11)
  %54 = load ptr, ptr %5, align 8, !tbaa !4
  %55 = getelementptr inbounds nuw %struct.AVCodecContext, ptr %54, i32 0, i32 69
  store i32 %53, ptr %55, align 8, !tbaa !109
  call void @bytestream2_skip(ptr noundef %11, i32 noundef 4)
  call void @bytestream2_skip(ptr noundef %11, i32 noundef 2)
  %56 = call i32 @bytestream2_get_le16(ptr noundef %11)
  store i32 %56, ptr %9, align 4, !tbaa !44
  %57 = load i32, ptr %9, align 4, !tbaa !44
  %58 = load ptr, ptr %5, align 8, !tbaa !4
  %59 = getelementptr inbounds nuw %struct.AVCodecContext, ptr %58, i32 0, i32 114
  store i32 %57, ptr %59, align 8, !tbaa !110
  %60 = load i32, ptr %9, align 4, !tbaa !44
  %61 = icmp ne i32 %60, 16
  br i1 %61, label %62, label %68

62:                                               ; preds = %52
  %63 = load i32, ptr %9, align 4, !tbaa !44
  %64 = icmp ne i32 %63, 8
  br i1 %64, label %65, label %68

65:                                               ; preds = %62
  %66 = load ptr, ptr %5, align 8, !tbaa !4
  %67 = load i32, ptr %9, align 4, !tbaa !44
  call void (ptr, i32, ptr, ...) @av_log(ptr noundef %66, i32 noundef 16, ptr noundef @.str.25, i32 noundef %67)
  store i32 -38, ptr %4, align 4
  store i32 1, ptr %12, align 4
  br label %77

68:                                               ; preds = %62, %52
  %69 = load i32, ptr %8, align 4, !tbaa !44
  %70 = sub nsw i32 %69, 16
  store i32 %70, ptr %8, align 4, !tbaa !44
  %71 = load i32, ptr %8, align 4, !tbaa !44
  %72 = icmp sgt i32 %71, 0
  br i1 %72, label %73, label %76

73:                                               ; preds = %68
  %74 = load ptr, ptr %5, align 8, !tbaa !4
  %75 = load i32, ptr %8, align 4, !tbaa !44
  call void (ptr, i32, ptr, ...) @av_log(ptr noundef %74, i32 noundef 32, ptr noundef @.str.26, i32 noundef %75)
  br label %76

76:                                               ; preds = %73, %68
  store i32 0, ptr %4, align 4
  store i32 1, ptr %12, align 4
  br label %77

77:                                               ; preds = %76, %65, %50, %43, %36, %22, %17
  call void @llvm.lifetime.end.p0(i64 24, ptr %11) #11
  call void @llvm.lifetime.end.p0(i64 2, ptr %10) #11
  call void @llvm.lifetime.end.p0(i64 4, ptr %9) #11
  call void @llvm.lifetime.end.p0(i64 4, ptr %8) #11
  %78 = load i32, ptr %4, align 4
  ret i32 %78
}