; Function Attrs: nounwind uwtable
define internal fastcc range(i32 -1094995529, 1) i32 @decode_wave_header(ptr noundef %0, ptr noundef %1, i32 noundef %2) unnamed_addr #1 {
  %4 = icmp sgt i32 %2, -1
  br i1 %4, label %bytestream2_init.exit, label %5

5:                                                ; preds = %3
  tail call void (ptr, i32, ptr, ...) @av_log(ptr noundef null, i32 noundef 0, ptr noundef nonnull @.str.27, ptr noundef nonnull @.str.28, ptr noundef nonnull @.str.29, i32 noundef 141) #8
  tail call void @abort() #9
  unreachable

bytestream2_init.exit:                            ; preds = %3
  %6 = zext nneg i32 %2 to i64
  %7 = getelementptr inbounds nuw i8, ptr %1, i64 %6
  %8 = ptrtoint ptr %7 to i64
  %9 = icmp samesign ult i32 %2, 4
  br i1 %9, label %bytestream2_get_le32.exit.thread, label %bytestream2_get_le32.exit

bytestream2_get_le32.exit:                        ; preds = %bytestream2_init.exit
  %10 = load i32, ptr %1, align 1, !tbaa !48
  %.not = icmp eq i32 %10, 1179011410
  br i1 %.not, label %11, label %bytestream2_get_le32.exit.thread

bytestream2_get_le32.exit.thread:                 ; preds = %bytestream2_init.exit, %bytestream2_get_le32.exit
  tail call void (ptr, i32, ptr, ...) @av_log(ptr noundef %0, i32 noundef 16, ptr noundef nonnull @.str.20) #8
  br label %76

11:                                               ; preds = %bytestream2_get_le32.exit
  %12 = tail call i64 @llvm.umin.i64(i64 %6, i64 8)
  %gepdiff = sub nsw i64 %6, %12
  %13 = icmp slt i64 %gepdiff, 4
  br i1 %13, label %bytestream2_get_le32.exit30.thread, label %bytestream2_get_le32.exit30

bytestream2_get_le32.exit30:                      ; preds = %11
  %14 = getelementptr i8, ptr %1, i64 %12
  %15 = load i32, ptr %14, align 1, !tbaa !48
  %.not26 = icmp eq i32 %15, 1163280727
  br i1 %.not26, label %.preheader.preheader, label %bytestream2_get_le32.exit30.thread

.preheader.preheader:                             ; preds = %bytestream2_get_le32.exit30
  %16 = getelementptr inbounds nuw i8, ptr %14, i64 4
  br label %.preheader

bytestream2_get_le32.exit30.thread:               ; preds = %11, %bytestream2_get_le32.exit30
  tail call void (ptr, i32, ptr, ...) @av_log(ptr noundef %0, i32 noundef 16, ptr noundef nonnull @.str.21) #8
  br label %76

.preheader:                                       ; preds = %.preheader.preheader, %bytestream2_get_le32.exit34.thread
  %.sroa.0.0 = phi ptr [ %32, %bytestream2_get_le32.exit34.thread ], [ %16, %.preheader.preheader ]
  %17 = ptrtoint ptr %.sroa.0.0 to i64
  %18 = sub i64 %8, %17
  %19 = icmp slt i64 %18, 4
  br i1 %19, label %bytestream2_get_le32.exit32.thread, label %bytestream2_get_le32.exit32

bytestream2_get_le32.exit32:                      ; preds = %.preheader
  %20 = getelementptr inbounds nuw i8, ptr %.sroa.0.0, i64 4
  %21 = load i32, ptr %.sroa.0.0, align 1, !tbaa !48
  %.not27 = icmp eq i32 %21, 544501094
  %22 = ptrtoint ptr %20 to i64
  br i1 %.not27, label %37, label %bytestream2_get_le32.exit32.thread

bytestream2_get_le32.exit32.thread:               ; preds = %bytestream2_get_le32.exit32, %.preheader
  %.pre-phi108 = phi i64 [ %8, %.preheader ], [ %22, %bytestream2_get_le32.exit32 ]
  %.sroa.0.394 = phi ptr [ %7, %.preheader ], [ %20, %bytestream2_get_le32.exit32 ]
  %23 = sub i64 %8, %.pre-phi108
  %24 = icmp slt i64 %23, 4
  br i1 %24, label %bytestream2_get_le32.exit34.thread, label %bytestream2_get_le32.exit34

bytestream2_get_le32.exit34:                      ; preds = %bytestream2_get_le32.exit32.thread
  %25 = load i32, ptr %.sroa.0.394, align 1, !tbaa !48
  %26 = icmp slt i32 %25, 0
  br i1 %26, label %36, label %bytestream2_get_le32.exit34.bytestream2_get_le32.exit34.thread_crit_edge

bytestream2_get_le32.exit34.bytestream2_get_le32.exit34.thread_crit_edge: ; preds = %bytestream2_get_le32.exit34
  %27 = getelementptr inbounds nuw i8, ptr %.sroa.0.394, i64 4
  %28 = ptrtoint ptr %27 to i64
  %29 = sub i64 %8, %28
  %30 = zext nneg i32 %25 to i64
  %..i39 = tail call i64 @llvm.smin.i64(i64 %29, i64 %30)
  %31 = getelementptr inbounds i8, ptr %27, i64 %..i39
  %.pre109 = ptrtoint ptr %31 to i64
  br label %bytestream2_get_le32.exit34.thread

bytestream2_get_le32.exit34.thread:               ; preds = %bytestream2_get_le32.exit34.bytestream2_get_le32.exit34.thread_crit_edge, %bytestream2_get_le32.exit32.thread
  %.pre-phi110 = phi i64 [ %.pre109, %bytestream2_get_le32.exit34.bytestream2_get_le32.exit34.thread_crit_edge ], [ %8, %bytestream2_get_le32.exit32.thread ]
  %32 = phi ptr [ %31, %bytestream2_get_le32.exit34.bytestream2_get_le32.exit34.thread_crit_edge ], [ %7, %bytestream2_get_le32.exit32.thread ]
  %33 = sub i64 %8, %.pre-phi110
  %34 = trunc i64 %33 to i32
  %35 = icmp slt i32 %34, 16
  br i1 %35, label %36, label %.preheader, !llvm.loop !103

36:                                               ; preds = %bytestream2_get_le32.exit34.thread, %bytestream2_get_le32.exit34
  tail call void (ptr, i32, ptr, ...) @av_log(ptr noundef %0, i32 noundef 16, ptr noundef nonnull @.str.22) #8
  br label %76

37:                                               ; preds = %bytestream2_get_le32.exit32
  %38 = sub i64 %8, %22
  %39 = icmp slt i64 %38, 4
  br i1 %39, label %bytestream2_get_le32.exit36.thread, label %bytestream2_get_le32.exit36

bytestream2_get_le32.exit36:                      ; preds = %37
  %40 = getelementptr inbounds nuw i8, ptr %.sroa.0.0, i64 8
  %41 = load i32, ptr %20, align 1, !tbaa !48
  %42 = icmp slt i32 %41, 16
  br i1 %42, label %bytestream2_get_le32.exit36.thread, label %43

bytestream2_get_le32.exit36.thread:               ; preds = %37, %bytestream2_get_le32.exit36
  tail call void (ptr, i32, ptr, ...) @av_log(ptr noundef %0, i32 noundef 16, ptr noundef nonnull @.str.23) #8
  br label %76

43:                                               ; preds = %bytestream2_get_le32.exit36
  %44 = ptrtoint ptr %40 to i64
  %45 = sub i64 %8, %44
  %46 = icmp slt i64 %45, 2
  br i1 %46, label %bytestream2_get_le16.exit.thread, label %bytestream2_get_le16.exit

bytestream2_get_le16.exit:                        ; preds = %43
  %47 = load i16, ptr %40, align 1, !tbaa !48
  %cond = icmp eq i16 %47, 1
  br i1 %cond, label %48, label %bytestream2_get_le16.exit.thread

bytestream2_get_le16.exit.thread:                 ; preds = %43, %bytestream2_get_le16.exit
  tail call void (ptr, i32, ptr, ...) @av_log(ptr noundef %0, i32 noundef 16, ptr noundef nonnull @.str.24) #8
  br label %76

48:                                               ; preds = %bytestream2_get_le16.exit
  %49 = getelementptr inbounds nuw i8, ptr %.sroa.0.0, i64 10
  %50 = ptrtoint ptr %49 to i64
  %51 = sub i64 %8, %50
  %..i40 = tail call i64 @llvm.smin.i64(i64 %51, i64 2)
  %52 = getelementptr inbounds i8, ptr %49, i64 %..i40
  %53 = ptrtoint ptr %52 to i64
  %54 = sub i64 %8, %53
  %55 = icmp slt i64 %54, 4
  br i1 %55, label %bytestream2_get_le32.exit38, label %56

56:                                               ; preds = %48
  %57 = getelementptr inbounds nuw i8, ptr %52, i64 4
  %58 = load i32, ptr %52, align 1, !tbaa !48
  %.pre = ptrtoint ptr %57 to i64
  br label %bytestream2_get_le32.exit38

bytestream2_get_le32.exit38:                      ; preds = %48, %56
  %.pre-phi = phi i64 [ %8, %48 ], [ %.pre, %56 ]
  %.sroa.0.6 = phi ptr [ %7, %48 ], [ %57, %56 ]
  %.0.i37 = phi i32 [ 0, %48 ], [ %58, %56 ]
  %59 = getelementptr inbounds nuw i8, ptr %0, i64 344
  store i32 %.0.i37, ptr %59, align 8, !tbaa !104
  %60 = sub i64 %8, %.pre-phi
  %..i41 = tail call i64 @llvm.smin.i64(i64 %60, i64 4)
  %61 = getelementptr inbounds i8, ptr %.sroa.0.6, i64 %..i41
  %62 = ptrtoint ptr %61 to i64
  %63 = sub i64 %8, %62
  %..i42 = tail call i64 @llvm.smin.i64(i64 %63, i64 2)
  %64 = getelementptr inbounds i8, ptr %61, i64 %..i42
  %65 = ptrtoint ptr %64 to i64
  %66 = sub i64 %8, %65
  %67 = icmp slt i64 %66, 2
  br i1 %67, label %bytestream2_get_le16.exit45.thread, label %bytestream2_get_le16.exit45

bytestream2_get_le16.exit45.thread:               ; preds = %bytestream2_get_le32.exit38
  %68 = getelementptr inbounds nuw i8, ptr %0, i64 648
  store i32 0, ptr %68, align 8, !tbaa !105
  br label %72

bytestream2_get_le16.exit45:                      ; preds = %bytestream2_get_le32.exit38
  %69 = load i16, ptr %64, align 1, !tbaa !48
  %70 = zext i16 %69 to i32
  %71 = getelementptr inbounds nuw i8, ptr %0, i64 648
  store i32 %70, ptr %71, align 8, !tbaa !105
  switch i16 %69, label %72 [
    i16 16, label %73
    i16 8, label %73
  ]

72:                                               ; preds = %bytestream2_get_le16.exit45.thread, %bytestream2_get_le16.exit45
  %.0.i44104 = phi i32 [ 0, %bytestream2_get_le16.exit45.thread ], [ %70, %bytestream2_get_le16.exit45 ]
  tail call void (ptr, i32, ptr, ...) @av_log(ptr noundef nonnull %0, i32 noundef 16, ptr noundef nonnull @.str.25, i32 noundef %.0.i44104) #8
  br label %76

73:                                               ; preds = %bytestream2_get_le16.exit45, %bytestream2_get_le16.exit45
  %.not28 = icmp eq i32 %41, 16
  br i1 %.not28, label %76, label %74

74:                                               ; preds = %73
  %75 = add nsw i32 %41, -16
  tail call void (ptr, i32, ptr, ...) @av_log(ptr noundef nonnull %0, i32 noundef 32, ptr noundef nonnull @.str.26, i32 noundef %75) #8
  br label %76

76:                                               ; preds = %73, %74, %72, %bytestream2_get_le16.exit.thread, %bytestream2_get_le32.exit36.thread, %36, %bytestream2_get_le32.exit30.thread, %bytestream2_get_le32.exit.thread
  %.0 = phi i32 [ -1094995529, %bytestream2_get_le32.exit.thread ], [ -1094995529, %bytestream2_get_le32.exit30.thread ], [ -1094995529, %36 ], [ -1094995529, %bytestream2_get_le32.exit36.thread ], [ -38, %72 ], [ -38, %bytestream2_get_le16.exit.thread ], [ 0, %74 ], [ 0, %73 ]
  ret i32 %.0
}